(dp1
S'files'
p2
(dp3
S'_usr_local_lib_python2_7_dist-packages_selenium_webdriver_common_desired_capabilities'
p4
(dp5
S'index'
p6
(dp7
S'html_filename'
p8
S'_usr_local_lib_python2_7_dist-packages_selenium_webdriver_common_desired_capabilities.html'
p9
sS'name'
p10
S'/usr/local/lib/python2.7/dist-packages/selenium/webdriver/common/desired_capabilities'
p11
sS'nums'
p12
ccopy_reg
_reconstructor
p13
(ccoverage.results
Numbers
p14
c__builtin__
object
p15
NtRp16
(dp17
S'n_files'
p18
I1
sS'n_branches'
p19
I0
sS'n_statements'
p20
I13
sS'n_excluded'
p21
I0
sS'n_partial_branches'
p22
I0
sS'n_missing'
p23
I0
sS'n_missing_branches'
p24
I0
sbssS'hash'
p25
S'7n\xe5e\xeev\xb39\\\xa3\xd3!\x93\x07X\xf9'
p26
ssS'_usr_local_lib_python2_7_dist-packages_selenium_webdriver_remote_mobile'
p27
(dp28
g6
(dp29
g8
S'_usr_local_lib_python2_7_dist-packages_selenium_webdriver_remote_mobile.html'
p30
sg10
S'/usr/local/lib/python2.7/dist-packages/selenium/webdriver/remote/mobile'
p31
sg12
g13
(g14
g15
NtRp32
(dp33
g18
I1
sg19
I0
sg20
I23
sg21
I0
sg22
I0
sg23
I6
sg24
I0
sbssg25
S'\x84\x15\xcd\x1az\x9c+\x96\xa8\xf8\x80\x87\x19\xb15\x10'
p34
ssS'_usr_local_lib_python2_7_dist-packages_selenium_selenium'
p35
(dp36
g6
(dp37
g8
S'_usr_local_lib_python2_7_dist-packages_selenium_selenium.html'
p38
sg10
S'/usr/local/lib/python2.7/dist-packages/selenium/selenium'
p39
sg12
g13
(g14
g15
NtRp40
(dp41
g18
I1
sg19
I0
sg20
I399
sg21
I0
sg22
I0
sg23
I227
sg24
I0
sbssg25
S'3\xc5\xcf\x7f\x0b\xfe\xd0\x8e\xa1%\x05>\xb9\x14x\xc1'
p42
ssS'_usr_local_lib_python2_7_dist-packages_selenium_webdriver_remote_utils'
p43
(dp44
g6
(dp45
g8
S'_usr_local_lib_python2_7_dist-packages_selenium_webdriver_remote_utils.html'
p46
sg10
S'/usr/local/lib/python2.7/dist-packages/selenium/webdriver/remote/utils'
p47
sg12
g13
(g14
g15
NtRp48
(dp49
g18
I1
sg19
I0
sg20
I57
sg21
I0
sg22
I0
sg23
I41
sg24
I0
sbssg25
S'\xf9\xa7\xfc\xfdUq\xef2\x06\x85\x14\x90\xf5e\x90\x89'
p50
ssS'_usr_local_lib_python2_7_dist-packages_selenium_webdriver_firefox_extension_connection'
p51
(dp52
g6
(dp53
g8
S'_usr_local_lib_python2_7_dist-packages_selenium_webdriver_firefox_extension_connection.html'
p54
sg10
S'/usr/local/lib/python2.7/dist-packages/selenium/webdriver/firefox/extension_connection'
p55
sg12
g13
(g14
g15
NtRp56
(dp57
g18
I1
sg19
I0
sg20
I40
sg21
I0
sg22
I0
sg23
I9
sg24
I0
sbssg25
S'4]"\x16<\xa1\xd3\xaaD\xa5(J|\xa8\x8eP'
p58
ssS'_usr_local_lib_python2_7_dist-packages_selenium_webdriver_remote_errorhandler'
p59
(dp60
g6
(dp61
S'html_filename'
p62
S'_usr_local_lib_python2_7_dist-packages_selenium_webdriver_remote_errorhandler.html'
p63
sS'name'
p64
S'/usr/local/lib/python2.7/dist-packages/selenium/webdriver/remote/errorhandler'
p65
sS'nums'
p66
g13
(g14
g15
NtRp67
(dp68
g18
I1
sg19
I0
sg20
I125
sg21
I0
sg22
I0
sg23
I42
sg24
I0
sbssg25
S'\xb6\xbe\x15\xca@\x07k$=\x98@\x9b\x98\x8c\xa0\xb5'
p69
ssS'_usr_local_lib_python2_7_dist-packages_selenium_webdriver_phantomjs___init__'
p70
(dp71
g6
(dp72
g8
S'_usr_local_lib_python2_7_dist-packages_selenium_webdriver_phantomjs___init__.html'
p73
sg10
S'/usr/local/lib/python2.7/dist-packages/selenium/webdriver/phantomjs/__init__'
p74
sg12
g13
(g14
g15
NtRp75
(dp76
g18
I1
sg19
I0
sg20
I0
sg21
I0
sg22
I0
sg23
I0
sg24
I0
sbssg25
S'\xbf\xc2\xe6\xa9<k\xa4\xb1\x88\x7f\x90\x84\x8a\x89\xec\xa8'
p77
ssS'_usr_local_lib_python2_7_dist-packages_selenium_common___init__'
p78
(dp79
g6
(dp80
g8
S'_usr_local_lib_python2_7_dist-packages_selenium_common___init__.html'
p81
sg10
S'/usr/local/lib/python2.7/dist-packages/selenium/common/__init__'
p82
sg12
g13
(g14
g15
NtRp83
(dp84
g18
I1
sg19
I0
sg20
I1
sg21
I0
sg22
I0
sg23
I0
sg24
I0
sbssg25
S'_Z\xc8(\x8a\xf7\x80\xcf\x8b/l\xee\xb3JUs'
p85
ssS'_usr_local_lib_python2_7_dist-packages_selenium_webdriver_android___init__'
p86
(dp87
g6
(dp88
g8
S'_usr_local_lib_python2_7_dist-packages_selenium_webdriver_android___init__.html'
p89
sg10
S'/usr/local/lib/python2.7/dist-packages/selenium/webdriver/android/__init__'
p90
sg12
g13
(g14
g15
NtRp91
(dp92
g18
I1
sg19
I0
sg20
I0
sg21
I0
sg22
I0
sg23
I0
sg24
I0
sbssg25
S'\xca\xf5\x9f\x7f\x88\xdfa\x831|T\x1d\xbc}\xa5v'
p93
ssS'_usr_local_lib_python2_7_dist-packages_selenium_webdriver_common___init__'
p94
(dp95
g6
(dp96
g8
S'_usr_local_lib_python2_7_dist-packages_selenium_webdriver_common___init__.html'
p97
sg10
S'/usr/local/lib/python2.7/dist-packages/selenium/webdriver/common/__init__'
p98
sg12
g13
(g14
g15
NtRp99
(dp100
g18
I1
sg19
I0
sg20
I0
sg21
I0
sg22
I0
sg23
I0
sg24
I0
sbssg25
S'\xc7\xbf\xf0\xcfr\xe8~\t\x9c\xf2p\xbc&P\xa7\xd3'
p101
ssS'_usr_local_lib_python2_7_dist-packages_selenium_webdriver_chrome_service'
p102
(dp103
g6
(dp104
g8
S'_usr_local_lib_python2_7_dist-packages_selenium_webdriver_chrome_service.html'
p105
sg10
S'/usr/local/lib/python2.7/dist-packages/selenium/webdriver/chrome/service'
p106
sg12
g13
(g14
g15
NtRp107
(dp108
g18
I1
sg19
I0
sg20
I50
sg21
I0
sg22
I0
sg23
I39
sg24
I0
sbssg25
S'!K\x10\xe32O\xeb\x16\xef\x96\xbe\x88\xd5\x81\x1c\x18'
p109
ssS'_usr_local_lib_python2_7_dist-packages_selenium_webdriver_opera_service'
p110
(dp111
g6
(dp112
g8
S'_usr_local_lib_python2_7_dist-packages_selenium_webdriver_opera_service.html'
p113
sg10
S'/usr/local/lib/python2.7/dist-packages/selenium/webdriver/opera/service'
p114
sg12
g13
(g14
g15
NtRp115
(dp116
g18
I1
sg19
I0
sg20
I30
sg21
I0
sg22
I0
sg23
I20
sg24
I0
sbssg25
S'\xdc\xd8\x00!\xd8\xd7B\x17\xd9{Q\xf1\xe6\x1eC\xb5'
p117
ssS'_usr_local_lib_python2_7_dist-packages_selenium_common_exceptions'
p118
(dp119
g6
(dp120
g62
S'_usr_local_lib_python2_7_dist-packages_selenium_common_exceptions.html'
p121
sg64
S'/usr/local/lib/python2.7/dist-packages/selenium/common/exceptions'
p122
sg66
g13
(g14
g15
NtRp123
(dp124
g18
I1
sg19
I0
sg20
I57
sg21
I0
sg22
I0
sg23
I8
sg24
I0
sbssg25
S'c\xd2\x82c\xc2\xec\xed\x8e\x12\n\xc7:W\xdaQ\xdd'
p125
ssS'_usr_local_lib_python2_7_dist-packages_selenium_webdriver_chrome_webdriver'
p126
(dp127
g6
(dp128
g8
S'_usr_local_lib_python2_7_dist-packages_selenium_webdriver_chrome_webdriver.html'
p129
sg10
S'/usr/local/lib/python2.7/dist-packages/selenium/webdriver/chrome/webdriver'
p130
sg12
g13
(g14
g15
NtRp131
(dp132
g18
I1
sg19
I0
sg20
I28
sg21
I0
sg22
I0
sg23
I19
sg24
I0
sbssg25
S'z\xf82F^\xe7\x1d%\xe9w\x95J\x9c\xeb\xab('
p133
ssS'web_driver_selenium'
p134
(dp135
g6
(dp136
g62
S'web_driver_selenium.html'
p137
sg64
S'web_driver_selenium'
p138
sg66
g13
(g14
g15
NtRp139
(dp140
g18
I1
sg19
I0
sg20
I39
sg21
I0
sg22
I0
sg23
I2
sg24
I0
sbssg25
S'\t^+\x03e\n\xd4^g)\xd05\xd8\xac\xe6\xc5'
p141
ssS'_usr_local_lib_python2_7_dist-packages_selenium_webdriver_common_alert'
p142
(dp143
g6
(dp144
g8
S'_usr_local_lib_python2_7_dist-packages_selenium_webdriver_common_alert.html'
p145
sg10
S'/usr/local/lib/python2.7/dist-packages/selenium/webdriver/common/alert'
p146
sg12
g13
(g14
g15
NtRp147
(dp148
g18
I1
sg19
I0
sg20
I13
sg21
I0
sg22
I0
sg23
I5
sg24
I0
sbssg25
S"\xca\x12\xc7\x83\xaa'1\xfa\xab\xd8\xb1\xff\x94\x18\xe5\x94"
p149
ssS'_usr_local_lib_python2_7_dist-packages_selenium_webdriver_ie_webdriver'
p150
(dp151
g6
(dp152
g8
S'_usr_local_lib_python2_7_dist-packages_selenium_webdriver_ie_webdriver.html'
p153
sg10
S'/usr/local/lib/python2.7/dist-packages/selenium/webdriver/ie/webdriver'
p154
sg12
g13
(g14
g15
NtRp155
(dp156
g18
I1
sg19
I0
sg20
I29
sg21
I0
sg22
I0
sg23
I14
sg24
I0
sbssg25
S'\xb2\x18\xc9\xe5Q\x1e\xb3\xb0\xcc\x9ej\xc6"H\xd3\xca'
p157
ssS'_usr_local_lib_python2_7_dist-packages_selenium_webdriver_ie_service'
p158
(dp159
g6
(dp160
g8
S'_usr_local_lib_python2_7_dist-packages_selenium_webdriver_ie_service.html'
p161
sg10
S'/usr/local/lib/python2.7/dist-packages/selenium/webdriver/ie/service'
p162
sg12
g13
(g14
g15
NtRp163
(dp164
g18
I1
sg19
I0
sg20
I54
sg21
I0
sg22
I0
sg23
I45
sg24
I0
sbssg25
S'\xf9sS\x86rbT\x03A\xc0$\x8eI\x12\xef\x1c'
p165
ssS'_usr_local_lib_python2_7_dist-packages_selenium_webdriver_safari_service'
p166
(dp167
g6
(dp168
g8
S'_usr_local_lib_python2_7_dist-packages_selenium_webdriver_safari_service.html'
p169
sg10
S'/usr/local/lib/python2.7/dist-packages/selenium/webdriver/safari/service'
p170
sg12
g13
(g14
g15
NtRp171
(dp172
g18
I1
sg19
I0
sg20
I30
sg21
I0
sg22
I0
sg23
I20
sg24
I0
sbssg25
S'\xc8\xb7 \xf2\xc2\x17\xc9\x9e\x82\xf4\xff\xde\xe1E\xc80'
p173
ssS'_usr_local_lib_python2_7_dist-packages_selenium_webdriver_opera_webdriver'
p174
(dp175
g6
(dp176
g8
S'_usr_local_lib_python2_7_dist-packages_selenium_webdriver_opera_webdriver.html'
p177
sg10
S'/usr/local/lib/python2.7/dist-packages/selenium/webdriver/opera/webdriver'
p178
sg12
g13
(g14
g15
NtRp179
(dp180
g18
I1
sg19
I0
sg20
I27
sg21
I0
sg22
I0
sg23
I14
sg24
I0
sbssg25
S'N\xdc\xd4;\xde\x8ctj\x17\x01\xd7O\xe8$x7'
p181
ssS'_usr_local_lib_python2_7_dist-packages_selenium_webdriver_common_utils'
p182
(dp183
g6
(dp184
g8
S'_usr_local_lib_python2_7_dist-packages_selenium_webdriver_common_utils.html'
p185
sg10
S'/usr/local/lib/python2.7/dist-packages/selenium/webdriver/common/utils'
p186
sg12
g13
(g14
g15
NtRp187
(dp188
g18
I1
sg19
I0
sg20
I30
sg21
I0
sg22
I0
sg23
I11
sg24
I0
sbssg25
S'\xf4\xa5\xa9\xf5\x01\t\x07nr5<\x9c;c\xee|'
p189
ssS'_usr_local_lib_python2_7_dist-packages_selenium___init__'
p190
(dp191
g6
(dp192
g8
S'_usr_local_lib_python2_7_dist-packages_selenium___init__.html'
p193
sg10
S'/usr/local/lib/python2.7/dist-packages/selenium/__init__'
p194
sg12
g13
(g14
g15
NtRp195
(dp196
g18
I1
sg19
I0
sg20
I2
sg21
I0
sg22
I0
sg23
I0
sg24
I0
sbssg25
S'x[\x0e\xa5\x10\x8a\x16\x9b9\x12Zd|\xa9}M'
p197
ssS'_usr_local_lib_python2_7_dist-packages_selenium_webdriver___init__'
p198
(dp199
g6
(dp200
g8
S'_usr_local_lib_python2_7_dist-packages_selenium_webdriver___init__.html'
p201
sg10
S'/usr/local/lib/python2.7/dist-packages/selenium/webdriver/__init__'
p202
sg12
g13
(g14
g15
NtRp203
(dp204
g18
I1
sg19
I0
sg20
I15
sg21
I0
sg22
I0
sg23
I0
sg24
I0
sbssg25
S'X\x18\x9c\xf5`\xaca\x1b\x14l\xa9\xe6\x02\xee\xe59'
p205
ssS'_usr_local_lib_python2_7_dist-packages_selenium_webdriver_chrome___init__'
p206
(dp207
g6
(dp208
g8
S'_usr_local_lib_python2_7_dist-packages_selenium_webdriver_chrome___init__.html'
p209
sg10
S'/usr/local/lib/python2.7/dist-packages/selenium/webdriver/chrome/__init__'
p210
sg12
g13
(g14
g15
NtRp211
(dp212
g18
I1
sg19
I0
sg20
I0
sg21
I0
sg22
I0
sg23
I0
sg24
I0
sbssg25
S'\xc7\xbf\xf0\xcfr\xe8~\t\x9c\xf2p\xbc&P\xa7\xd3'
p213
ssS'_usr_local_lib_python2_7_dist-packages_selenium_webdriver_remote_webdriver'
p214
(dp215
g6
(dp216
g62
S'_usr_local_lib_python2_7_dist-packages_selenium_webdriver_remote_webdriver.html'
p217
sg64
S'/usr/local/lib/python2.7/dist-packages/selenium/webdriver/remote/webdriver'
p218
sg66
g13
(g14
g15
NtRp219
(dp220
g18
I1
sg19
I0
sg20
I231
sg21
I0
sg22
I0
sg23
I98
sg24
I0
sbssg25
S'\xe3kmz[R/\xf2\x85\x8f\x97\x8b\xb5D\xe4\x91'
p221
ssS'_usr_local_lib_python2_7_dist-packages_selenium_webdriver_common_keys'
p222
(dp223
g6
(dp224
g8
S'_usr_local_lib_python2_7_dist-packages_selenium_webdriver_common_keys.html'
p225
sg10
S'/usr/local/lib/python2.7/dist-packages/selenium/webdriver/common/keys'
p226
sg12
g13
(g14
g15
NtRp227
(dp228
g18
I1
sg19
I0
sg20
I67
sg21
I0
sg22
I0
sg23
I0
sg24
I0
sbssg25
S'\x8cE\xf6\xf8I:]\x866\xc8_\x14\x8e\xa2\xcaO'
p229
ssS'_usr_local_lib_python2_7_dist-packages_selenium_webdriver_safari___init__'
p230
(dp231
g6
(dp232
g8
S'_usr_local_lib_python2_7_dist-packages_selenium_webdriver_safari___init__.html'
p233
sg10
S'/usr/local/lib/python2.7/dist-packages/selenium/webdriver/safari/__init__'
p234
sg12
g13
(g14
g15
NtRp235
(dp236
g18
I1
sg19
I0
sg20
I0
sg21
I0
sg22
I0
sg23
I0
sg24
I0
sbssg25
S'\xa6\xda\x15"\xbd\xb6\x01sw\xe3\xba:\xefu\x1d\xbe'
p237
ssS'_usr_local_lib_python2_7_dist-packages_selenium_webdriver_common_html5_application_cache'
p238
(dp239
g6
(dp240
g8
S'_usr_local_lib_python2_7_dist-packages_selenium_webdriver_common_html5_application_cache.html'
p241
sg10
S'/usr/local/lib/python2.7/dist-packages/selenium/webdriver/common/html5/application_cache'
p242
sg12
g13
(g14
g15
NtRp243
(dp244
g18
I1
sg19
I0
sg20
I12
sg21
I0
sg22
I0
sg23
I2
sg24
I0
sbssg25
S'\x07FcY/r,\x0e\x13\xb2Tp,h%>'
p245
ssS'_usr_local_lib_python2_7_dist-packages_selenium_webdriver_common_proxy'
p246
(dp247
g6
(dp248
g8
S'_usr_local_lib_python2_7_dist-packages_selenium_webdriver_common_proxy.html'
p249
sg10
S'/usr/local/lib/python2.7/dist-packages/selenium/webdriver/common/proxy'
p250
sg12
g13
(g14
g15
NtRp251
(dp252
g18
I1
sg19
I0
sg20
I140
sg21
I0
sg22
I0
sg23
I94
sg24
I0
sbssg25
S'\xc9G\xcdZ\xe9,\xb5X\x8e\xb1K\xe8.L\xb9\x13'
p253
ssS'_usr_local_lib_python2_7_dist-packages_selenium_webdriver_firefox___init__'
p254
(dp255
g6
(dp256
g8
S'_usr_local_lib_python2_7_dist-packages_selenium_webdriver_firefox___init__.html'
p257
sg10
S'/usr/local/lib/python2.7/dist-packages/selenium/webdriver/firefox/__init__'
p258
sg12
g13
(g14
g15
NtRp259
(dp260
g18
I1
sg19
I0
sg20
I0
sg21
I0
sg22
I0
sg23
I0
sg24
I0
sbssg25
S'\xa6\xda\x15"\xbd\xb6\x01sw\xe3\xba:\xefu\x1d\xbe'
p261
ssS'_usr_local_lib_python2_7_dist-packages_selenium_webdriver_common_action_chains'
p262
(dp263
g6
(dp264
g8
S'_usr_local_lib_python2_7_dist-packages_selenium_webdriver_common_action_chains.html'
p265
sg10
S'/usr/local/lib/python2.7/dist-packages/selenium/webdriver/common/action_chains'
p266
sg12
g13
(g14
g15
NtRp267
(dp268
g18
I1
sg19
I0
sg20
I78
sg21
I0
sg22
I0
sg23
I46
sg24
I0
sbssg25
S'\xac"\xab\xc7L\xbd\xff7\x843\xe9\xac\xab\xdc&#'
p269
ssS'_usr_local_lib_python2_7_dist-packages_selenium_webdriver_remote_command'
p270
(dp271
g6
(dp272
g8
S'_usr_local_lib_python2_7_dist-packages_selenium_webdriver_remote_command.html'
p273
sg10
S'/usr/local/lib/python2.7/dist-packages/selenium/webdriver/remote/command'
p274
sg12
g13
(g14
g15
NtRp275
(dp276
g18
I1
sg19
I0
sg20
I100
sg21
I0
sg22
I0
sg23
I0
sg24
I0
sbssg25
S'\xc1\xdb}\xb3\x80[\xc3o\x96\xe1\xac\\\xa6\xf0\xe5\xcb'
p277
ssS'_usr_local_lib_python2_7_dist-packages_selenium_webdriver_remote_webelement'
p278
(dp279
g6
(dp280
g8
S'_usr_local_lib_python2_7_dist-packages_selenium_webdriver_remote_webelement.html'
p281
sg10
S'/usr/local/lib/python2.7/dist-packages/selenium/webdriver/remote/webelement'
p282
sg12
g13
(g14
g15
NtRp283
(dp284
g18
I1
sg19
I0
sg20
I172
sg21
I0
sg22
I0
sg23
I101
sg24
I0
sbssg25
S'\x1d!"#P\xdc\xbc\xf3w\x85\x08/\xa0\xa3\xb5\x8a'
p285
ssS'_usr_local_lib_python2_7_dist-packages_selenium_webdriver_common_touch_actions'
p286
(dp287
g6
(dp288
g8
S'_usr_local_lib_python2_7_dist-packages_selenium_webdriver_common_touch_actions.html'
p289
sg10
S'/usr/local/lib/python2.7/dist-packages/selenium/webdriver/common/touch_actions'
p290
sg12
g13
(g14
g15
NtRp291
(dp292
g18
I1
sg19
I0
sg20
I42
sg21
I0
sg22
I0
sg23
I26
sg24
I0
sbssg25
S'\x9dw\xcef\xaa\x84\xef5\x9b\x19Dw\x1b*\x8e\xd3'
p293
ssS'_usr_local_lib_python2_7_dist-packages_selenium_webdriver_phantomjs_webdriver'
p294
(dp295
g6
(dp296
g8
S'_usr_local_lib_python2_7_dist-packages_selenium_webdriver_phantomjs_webdriver.html'
p297
sg10
S'/usr/local/lib/python2.7/dist-packages/selenium/webdriver/phantomjs/webdriver'
p298
sg12
g13
(g14
g15
NtRp299
(dp300
g18
I1
sg19
I0
sg20
I22
sg21
I0
sg22
I0
sg23
I13
sg24
I0
sbssg25
S'u\xa5\xbeb\xb4\x07\x9c\x0ez\xbfA`\x8cV\x960'
p301
ssS'_usr_local_lib_python2_7_dist-packages_selenium_webdriver_phantomjs_service'
p302
(dp303
g6
(dp304
g8
S'_usr_local_lib_python2_7_dist-packages_selenium_webdriver_phantomjs_service.html'
p305
sg10
S'/usr/local/lib/python2.7/dist-packages/selenium/webdriver/phantomjs/service'
p306
sg12
g13
(g14
g15
NtRp307
(dp308
g18
I1
sg19
I0
sg20
I48
sg21
I0
sg22
I0
sg23
I36
sg24
I0
sbssg25
S'\xd7\xaf\xa3\x88\xac[&\xf6\x97,\xab\x83\xb8\xeb7G'
p309
ssS'_usr_local_lib_python2_7_dist-packages_selenium_webdriver_opera___init__'
p310
(dp311
g6
(dp312
g8
S'_usr_local_lib_python2_7_dist-packages_selenium_webdriver_opera___init__.html'
p313
sg10
S'/usr/local/lib/python2.7/dist-packages/selenium/webdriver/opera/__init__'
p314
sg12
g13
(g14
g15
NtRp315
(dp316
g18
I1
sg19
I0
sg20
I0
sg21
I0
sg22
I0
sg23
I0
sg24
I0
sbssg25
S'\xa6\xda\x15"\xbd\xb6\x01sw\xe3\xba:\xefu\x1d\xbe'
p317
ssS'_usr_local_lib_python2_7_dist-packages_selenium_webdriver_remote_remote_connection'
p318
(dp319
g6
(dp320
g62
S'_usr_local_lib_python2_7_dist-packages_selenium_webdriver_remote_remote_connection.html'
p321
sg64
S'/usr/local/lib/python2.7/dist-packages/selenium/webdriver/remote/remote_connection'
p322
sg66
g13
(g14
g15
NtRp323
(dp324
g18
I1
sg19
I0
sg20
I139
sg21
I0
sg22
I0
sg23
I63
sg24
I0
sbssg25
S'\xdc\x88L\xa0\x84\xdfo\xbe\x95\x15\xb3%GL\xe9\xf9'
p325
ssS'_usr_local_lib_python2_7_dist-packages_selenium_webdriver_chrome_options'
p326
(dp327
g6
(dp328
g8
S'_usr_local_lib_python2_7_dist-packages_selenium_webdriver_chrome_options.html'
p329
sg10
S'/usr/local/lib/python2.7/dist-packages/selenium/webdriver/chrome/options'
p330
sg12
g13
(g14
g15
NtRp331
(dp332
g18
I1
sg19
I0
sg20
I50
sg21
I0
sg22
I0
sg23
I35
sg24
I0
sbssg25
S'\xf37\x07\xf1\x87\xde\x0fJ\xc4h\n\xd8.I%\xf2'
p333
ssS'_usr_local_lib_python2_7_dist-packages_selenium_webdriver_common_by'
p334
(dp335
g6
(dp336
g8
S'_usr_local_lib_python2_7_dist-packages_selenium_webdriver_common_by.html'
p337
sg10
S'/usr/local/lib/python2.7/dist-packages/selenium/webdriver/common/by'
p338
sg12
g13
(g14
g15
NtRp339
(dp340
g18
I1
sg19
I0
sg20
I15
sg21
I0
sg22
I0
sg23
I1
sg24
I0
sbssg25
S'Vm\xda\xa3\x92jH\xaa\xffp^\x89d\x8a\x959'
p341
ssS'_usr_local_lib_python2_7_dist-packages_selenium_webdriver_ie___init__'
p342
(dp343
g6
(dp344
g8
S'_usr_local_lib_python2_7_dist-packages_selenium_webdriver_ie___init__.html'
p345
sg10
S'/usr/local/lib/python2.7/dist-packages/selenium/webdriver/ie/__init__'
p346
sg12
g13
(g14
g15
NtRp347
(dp348
g18
I1
sg19
I0
sg20
I0
sg21
I0
sg22
I0
sg23
I0
sg24
I0
sbssg25
S'\x96\x8c\xaaO\xe6%\xd0\x00\x85\x0f\xc9\xf2gl\xff\xa6'
p349
ssS'_usr_local_lib_python2_7_dist-packages_selenium_webdriver_remote_switch_to'
p350
(dp351
g6
(dp352
g8
S'_usr_local_lib_python2_7_dist-packages_selenium_webdriver_remote_switch_to.html'
p353
sg10
S'/usr/local/lib/python2.7/dist-packages/selenium/webdriver/remote/switch_to'
p354
sg12
g13
(g14
g15
NtRp355
(dp356
g18
I1
sg19
I0
sg20
I17
sg21
I0
sg22
I0
sg23
I6
sg24
I0
sbssg25
S'\xb9\xac]?\xd3&v!\x8e\xe0+]\xf0]by'
p357
ssS'_usr_local_lib_python2_7_dist-packages_selenium_webdriver_remote___init__'
p358
(dp359
g6
(dp360
g8
S'_usr_local_lib_python2_7_dist-packages_selenium_webdriver_remote___init__.html'
p361
sg10
S'/usr/local/lib/python2.7/dist-packages/selenium/webdriver/remote/__init__'
p362
sg12
g13
(g14
g15
NtRp363
(dp364
g18
I1
sg19
I0
sg20
I0
sg21
I0
sg22
I0
sg23
I0
sg24
I0
sbssg25
S'\xc7\xbf\xf0\xcfr\xe8~\t\x9c\xf2p\xbc&P\xa7\xd3'
p365
ssS'_usr_local_lib_python2_7_dist-packages_selenium_webdriver_common_html5___init__'
p366
(dp367
g6
(dp368
g8
S'_usr_local_lib_python2_7_dist-packages_selenium_webdriver_common_html5___init__.html'
p369
sg10
S'/usr/local/lib/python2.7/dist-packages/selenium/webdriver/common/html5/__init__'
p370
sg12
g13
(g14
g15
NtRp371
(dp372
g18
I1
sg19
I0
sg20
I0
sg21
I0
sg22
I0
sg23
I0
sg24
I0
sbssg25
S'\x01\xd8\x0c&u\xf0Lr/\xd9\xa7\xda\x0b\xbb\x89\n'
p373
ssS'_usr_local_lib_python2_7_dist-packages_selenium_webdriver_firefox_webdriver'
p374
(dp375
g6
(dp376
g8
S'_usr_local_lib_python2_7_dist-packages_selenium_webdriver_firefox_webdriver.html'
p377
sg10
S'/usr/local/lib/python2.7/dist-packages/selenium/webdriver/firefox/webdriver'
p378
sg12
g13
(g14
g15
NtRp379
(dp380
g18
I1
sg19
I0
sg20
I42
sg21
I0
sg22
I0
sg23
I13
sg24
I0
sbssg25
S'\x88R\xdb\xa3c=%\xd6\xb5\x18\xc5\x8e\xe7\x88\xf7\x8c'
p381
ssS'_usr_local_lib_python2_7_dist-packages_selenium_webdriver_firefox_firefox_profile'
p382
(dp383
g6
(dp384
g8
S'_usr_local_lib_python2_7_dist-packages_selenium_webdriver_firefox_firefox_profile.html'
p385
sg10
S'/usr/local/lib/python2.7/dist-packages/selenium/webdriver/firefox/firefox_profile'
p386
sg12
g13
(g14
g15
NtRp387
(dp388
g18
I1
sg19
I0
sg20
I213
sg21
I0
sg22
I0
sg23
I77
sg24
I0
sbssg25
S'6&\x8d\xe3\xe0\x92\xf9%+\xeaR\x86\xbd\xbf\x96\x17'
p389
ssS'_usr_local_lib_python2_7_dist-packages_selenium_webdriver_android_webdriver'
p390
(dp391
g6
(dp392
g8
S'_usr_local_lib_python2_7_dist-packages_selenium_webdriver_android_webdriver.html'
p393
sg10
S'/usr/local/lib/python2.7/dist-packages/selenium/webdriver/android/webdriver'
p394
sg12
g13
(g14
g15
NtRp395
(dp396
g18
I1
sg19
I0
sg20
I6
sg21
I0
sg22
I0
sg23
I1
sg24
I0
sbssg25
S'k\xa4\xa3\xfdp\xb5\xda\xdf\xfd\x1bFt\x01\xc9\x81\xe2'
p397
ssS'_usr_local_lib_python2_7_dist-packages_selenium_webdriver_safari_webdriver'
p398
(dp399
g6
(dp400
g8
S'_usr_local_lib_python2_7_dist-packages_selenium_webdriver_safari_webdriver.html'
p401
sg10
S'/usr/local/lib/python2.7/dist-packages/selenium/webdriver/safari/webdriver'
p402
sg12
g13
(g14
g15
NtRp403
(dp404
g18
I1
sg19
I0
sg20
I26
sg21
I0
sg22
I0
sg23
I14
sg24
I0
sbssg25
S'\x80\xb1\x01\x0f+\x91\xea21@\x9aQ/\x05tJ'
p405
ssS'_usr_local_lib_python2_7_dist-packages_selenium_webdriver_firefox_firefox_binary'
p406
(dp407
g6
(dp408
g8
S'_usr_local_lib_python2_7_dist-packages_selenium_webdriver_firefox_firefox_binary.html'
p409
sg10
S'/usr/local/lib/python2.7/dist-packages/selenium/webdriver/firefox/firefox_binary'
p410
sg12
g13
(g14
g15
NtRp411
(dp412
g18
I1
sg19
I0
sg20
I114
sg21
I0
sg22
I0
sg23
I39
sg24
I0
sbssg25
S'S\xd0\x8f\x0b\\\xf8\x17s\x01\xe6\x98\xbe\xb7\xfe\xe9\xcc'
p413
sssS'version'
p414
S'3.7.1'
p415
sS'settings'
p416
S'\x98\xa8x\xfe"r\xb5K\x98\xb1N\\\x99\x9e\xf3\xe5'
p417
sS'format'
p418
I1
s.